; Function Attrs: nounwind uwtable
define i64 @b2Joint_GetBodyA(i64 %0) local_unnamed_addr #0 {
  %.sroa.2.0.extract.shift = lshr i64 %0, 32
  %2 = trunc nuw i64 %.sroa.2.0.extract.shift to i32
  %3 = and i32 %2, 65535
  %4 = tail call ptr @b2GetWorld(i32 noundef %3) #10
  %5 = getelementptr inbounds nuw i8, ptr %4, i64 1112
  %.val.i = load ptr, ptr %5, align 8, !tbaa !10
  %6 = shl i64 %0, 32
  %sext.i = add i64 %6, -4294967296
  %7 = ashr exact i64 %sext.i, 32
  %8 = getelementptr inbounds %struct.b2Joint, ptr %.val.i, i64 %7, i32 4
  %9 = load i32, ptr %8, align 4, !tbaa !143
  %10 = tail call i64 @b2MakeBodyId(ptr noundef %4, i32 noundef %9) #10
  ret i64 %10
}